; Function Attrs: nounwind uwtable
define ptr @l_Lean_Environment_getModuleIdx_x3f(ptr noundef readonly captures(none) %0, ptr noundef %1) local_unnamed_addr #1 {
  tail call void @lean_inc_heartbeat() #10
  %3 = tail call noalias ptr @mi_malloc_small(i64 noundef 32) #10
  %4 = icmp eq ptr %3, null
  br i1 %4, label %5, label %lean_alloc_closure.exit

5:                                                ; preds = %2
  tail call void @lean_internal_panic_out_of_memory() #11
  unreachable

lean_alloc_closure.exit:                          ; preds = %2
  %6 = getelementptr inbounds nuw i8, ptr %3, i64 4
  store i32 1, ptr %3, align 4, !tbaa !4
  store i32 -184549344, ptr %6, align 4
  %7 = getelementptr inbounds nuw i8, ptr %3, i64 8
  store ptr @l_Lean_Environment_getModuleIdx_x3f___lambda__1___boxed, ptr %7, align 8, !tbaa !9
  %8 = getelementptr inbounds nuw i8, ptr %3, i64 16
  store i16 2, ptr %8, align 8, !tbaa !13
  %9 = getelementptr inbounds nuw i8, ptr %3, i64 18
  store i16 1, ptr %9, align 2, !tbaa !13
  %10 = getelementptr inbounds nuw i8, ptr %3, i64 24
  store ptr %1, ptr %10, align 8, !tbaa !9
  %11 = getelementptr inbounds nuw i8, ptr %0, i64 8
  %12 = load ptr, ptr %11, align 8, !tbaa !9
  %13 = getelementptr inbounds nuw i8, ptr %12, i64 8
  %14 = load ptr, ptr %13, align 8, !tbaa !9
  %15 = getelementptr inbounds nuw i8, ptr %14, i64 48
  %16 = load ptr, ptr %15, align 8, !tbaa !9
  %17 = ptrtoint ptr %16 to i64
  %18 = and i64 %17, 1
  %.not.i14 = icmp eq i64 %18, 0
  br i1 %.not.i14, label %19, label %l_Lean_Environment_header.exit

19:                                               ; preds = %lean_alloc_closure.exit
  %.val.i.i = load i32, ptr %16, align 4, !tbaa !4
  %20 = icmp sgt i32 %.val.i.i, 0
  br i1 %20, label %21, label %23, !prof !11

21:                                               ; preds = %19
  %22 = add nuw i32 %.val.i.i, 1
  store i32 %22, ptr %16, align 4, !tbaa !4
  br label %l_Lean_Environment_header.exit

23:                                               ; preds = %19
  %.not.i.i = icmp eq i32 %.val.i.i, 0
  br i1 %.not.i.i, label %l_Lean_Environment_header.exit, label %24

24:                                               ; preds = %23
  tail call void @lean_inc_ref_cold(ptr noundef nonnull %16) #10
  br label %l_Lean_Environment_header.exit

l_Lean_Environment_header.exit:                   ; preds = %lean_alloc_closure.exit, %21, %23, %24
  %25 = getelementptr inbounds nuw i8, ptr %16, i64 32
  %26 = load ptr, ptr %25, align 8, !tbaa !9
  %27 = ptrtoint ptr %26 to i64
  %28 = and i64 %27, 1
  %.not = icmp eq i64 %28, 0
  br i1 %.not, label %29, label %lean_inc.exit

29:                                               ; preds = %l_Lean_Environment_header.exit
  %.val.i = load i32, ptr %26, align 4, !tbaa !4
  %30 = icmp sgt i32 %.val.i, 0
  br i1 %30, label %31, label %33, !prof !11

31:                                               ; preds = %29
  %32 = add nuw i32 %.val.i, 1
  store i32 %32, ptr %26, align 4, !tbaa !4
  br label %lean_inc.exit

33:                                               ; preds = %29
  %.not.i15 = icmp eq i32 %.val.i, 0
  br i1 %.not.i15, label %lean_inc.exit, label %34

34:                                               ; preds = %33
  tail call void @lean_inc_ref_cold(ptr noundef nonnull %26) #10
  br label %lean_inc.exit

lean_inc.exit:                                    ; preds = %34, %33, %31, %l_Lean_Environment_header.exit
  br i1 %.not.i14, label %35, label %lean_dec.exit11

35:                                               ; preds = %lean_inc.exit
  %36 = load i32, ptr %16, align 4, !tbaa !4
  %37 = icmp sgt i32 %36, 1
  br i1 %37, label %38, label %40, !prof !11

38:                                               ; preds = %35
  %39 = add nsw i32 %36, -1
  store i32 %39, ptr %16, align 4, !tbaa !4
  br label %lean_dec.exit11

40:                                               ; preds = %35
  %.not.i = icmp eq i32 %36, 0
  br i1 %.not.i, label %lean_dec.exit11, label %41

41:                                               ; preds = %40
  tail call void @lean_dec_ref_cold(ptr noundef nonnull %16) #10
  br label %lean_dec.exit11

lean_dec.exit11:                                  ; preds = %41, %40, %38, %lean_inc.exit
  %42 = tail call ptr @l_Array_findIdx_x3f_loop___rarg(ptr noundef nonnull %3, ptr noundef %26, ptr noundef nonnull inttoptr (i64 1 to ptr)) #10
  br i1 %.not, label %43, label %lean_dec.exit

43:                                               ; preds = %lean_dec.exit11
  %44 = load i32, ptr %26, align 4, !tbaa !4
  %45 = icmp sgt i32 %44, 1
  br i1 %45, label %46, label %48, !prof !11

46:                                               ; preds = %43
  %47 = add nsw i32 %44, -1
  store i32 %47, ptr %26, align 4, !tbaa !4
  br label %lean_dec.exit

48:                                               ; preds = %43
  %.not.i12 = icmp eq i32 %44, 0
  br i1 %.not.i12, label %lean_dec.exit, label %49

49:                                               ; preds = %48
  tail call void @lean_dec_ref_cold(ptr noundef nonnull %26) #10
  br label %lean_dec.exit

lean_dec.exit:                                    ; preds = %49, %48, %46, %lean_dec.exit11
  ret ptr %42
}